
DIO_project_1.elf:     file format elf32-avr

Sections:
Idx Name          Size      VMA       LMA       File off  Algn
  0 .text         00000402  00000000  00000000  00000054  2**1
                  CONTENTS, ALLOC, LOAD, READONLY, CODE
  1 .data         00000000  00800060  00800060  00000456  2**0
                  CONTENTS, ALLOC, LOAD, DATA
  2 .comment      00000030  00000000  00000000  00000456  2**0
                  CONTENTS, READONLY
  3 .note.gnu.avr.deviceinfo 0000003c  00000000  00000000  00000488  2**2
                  CONTENTS, READONLY
  4 .debug_aranges 00000068  00000000  00000000  000004c4  2**0
                  CONTENTS, READONLY, DEBUGGING
  5 .debug_info   00000b01  00000000  00000000  0000052c  2**0
                  CONTENTS, READONLY, DEBUGGING
  6 .debug_abbrev 000006b1  00000000  00000000  0000102d  2**0
                  CONTENTS, READONLY, DEBUGGING
  7 .debug_line   000007be  00000000  00000000  000016de  2**0
                  CONTENTS, READONLY, DEBUGGING
  8 .debug_frame  00000098  00000000  00000000  00001e9c  2**2
                  CONTENTS, READONLY, DEBUGGING
  9 .debug_str    00000512  00000000  00000000  00001f34  2**0
                  CONTENTS, READONLY, DEBUGGING
 10 .debug_loc    0000095a  00000000  00000000  00002446  2**0
                  CONTENTS, READONLY, DEBUGGING
 11 .debug_ranges 00000048  00000000  00000000  00002da0  2**0
                  CONTENTS, READONLY, DEBUGGING

Disassembly of section .text:

00000000 <__vectors>:
   0:	0c 94 2a 00 	jmp	0x54	; 0x54 <__ctors_end>
   4:	0c 94 34 00 	jmp	0x68	; 0x68 <__bad_interrupt>
   8:	0c 94 34 00 	jmp	0x68	; 0x68 <__bad_interrupt>
   c:	0c 94 34 00 	jmp	0x68	; 0x68 <__bad_interrupt>
  10:	0c 94 34 00 	jmp	0x68	; 0x68 <__bad_interrupt>
  14:	0c 94 34 00 	jmp	0x68	; 0x68 <__bad_interrupt>
  18:	0c 94 34 00 	jmp	0x68	; 0x68 <__bad_interrupt>
  1c:	0c 94 34 00 	jmp	0x68	; 0x68 <__bad_interrupt>
  20:	0c 94 34 00 	jmp	0x68	; 0x68 <__bad_interrupt>
  24:	0c 94 34 00 	jmp	0x68	; 0x68 <__bad_interrupt>
  28:	0c 94 34 00 	jmp	0x68	; 0x68 <__bad_interrupt>
  2c:	0c 94 34 00 	jmp	0x68	; 0x68 <__bad_interrupt>
  30:	0c 94 34 00 	jmp	0x68	; 0x68 <__bad_interrupt>
  34:	0c 94 34 00 	jmp	0x68	; 0x68 <__bad_interrupt>
  38:	0c 94 34 00 	jmp	0x68	; 0x68 <__bad_interrupt>
  3c:	0c 94 34 00 	jmp	0x68	; 0x68 <__bad_interrupt>
  40:	0c 94 34 00 	jmp	0x68	; 0x68 <__bad_interrupt>
  44:	0c 94 34 00 	jmp	0x68	; 0x68 <__bad_interrupt>
  48:	0c 94 34 00 	jmp	0x68	; 0x68 <__bad_interrupt>
  4c:	0c 94 34 00 	jmp	0x68	; 0x68 <__bad_interrupt>
  50:	0c 94 34 00 	jmp	0x68	; 0x68 <__bad_interrupt>

00000054 <__ctors_end>:
  54:	11 24       	eor	r1, r1
  56:	1f be       	out	0x3f, r1	; 63
  58:	cf e5       	ldi	r28, 0x5F	; 95
  5a:	d8 e0       	ldi	r29, 0x08	; 8
  5c:	de bf       	out	0x3e, r29	; 62
  5e:	cd bf       	out	0x3d, r28	; 61
  60:	0e 94 ce 01 	call	0x39c	; 0x39c <main>
  64:	0c 94 ff 01 	jmp	0x3fe	; 0x3fe <_exit>

00000068 <__bad_interrupt>:
  68:	0c 94 00 00 	jmp	0	; 0x0 <__vectors>

0000006c <DIO_enumSetPinConfig>:
		
	}
	
	return DIO_ErrorState;
	
}
  6c:	84 30       	cpi	r24, 0x04	; 4
  6e:	08 f0       	brcs	.+2      	; 0x72 <DIO_enumSetPinConfig+0x6>
  70:	ee c0       	rjmp	.+476    	; 0x24e <DIO_enumSetPinConfig+0x1e2>
  72:	68 30       	cpi	r22, 0x08	; 8
  74:	08 f0       	brcs	.+2      	; 0x78 <DIO_enumSetPinConfig+0xc>
  76:	ed c0       	rjmp	.+474    	; 0x252 <DIO_enumSetPinConfig+0x1e6>
  78:	81 30       	cpi	r24, 0x01	; 1
  7a:	09 f4       	brne	.+2      	; 0x7e <DIO_enumSetPinConfig+0x12>
  7c:	40 c0       	rjmp	.+128    	; 0xfe <DIO_enumSetPinConfig+0x92>
  7e:	38 f0       	brcs	.+14     	; 0x8e <DIO_enumSetPinConfig+0x22>
  80:	82 30       	cpi	r24, 0x02	; 2
  82:	09 f4       	brne	.+2      	; 0x86 <DIO_enumSetPinConfig+0x1a>
  84:	74 c0       	rjmp	.+232    	; 0x16e <DIO_enumSetPinConfig+0x102>
  86:	83 30       	cpi	r24, 0x03	; 3
  88:	09 f4       	brne	.+2      	; 0x8c <DIO_enumSetPinConfig+0x20>
  8a:	a9 c0       	rjmp	.+338    	; 0x1de <DIO_enumSetPinConfig+0x172>
  8c:	e4 c0       	rjmp	.+456    	; 0x256 <DIO_enumSetPinConfig+0x1ea>
  8e:	41 30       	cpi	r20, 0x01	; 1
  90:	91 f0       	breq	.+36     	; 0xb6 <DIO_enumSetPinConfig+0x4a>
  92:	18 f0       	brcs	.+6      	; 0x9a <DIO_enumSetPinConfig+0x2e>
  94:	42 30       	cpi	r20, 0x02	; 2
  96:	11 f1       	breq	.+68     	; 0xdc <DIO_enumSetPinConfig+0x70>
  98:	e0 c0       	rjmp	.+448    	; 0x25a <DIO_enumSetPinConfig+0x1ee>
  9a:	81 e0       	ldi	r24, 0x01	; 1
  9c:	90 e0       	ldi	r25, 0x00	; 0
  9e:	02 c0       	rjmp	.+4      	; 0xa4 <DIO_enumSetPinConfig+0x38>
  a0:	88 0f       	add	r24, r24
  a2:	99 1f       	adc	r25, r25
  a4:	6a 95       	dec	r22
  a6:	e2 f7       	brpl	.-8      	; 0xa0 <DIO_enumSetPinConfig+0x34>
  a8:	2a b3       	in	r18, 0x1a	; 26
  aa:	82 2b       	or	r24, r18
  ac:	9a b3       	in	r25, 0x1a	; 26
  ae:	89 2b       	or	r24, r25
  b0:	8a bb       	out	0x1a, r24	; 26
  b2:	80 e0       	ldi	r24, 0x00	; 0
  b4:	08 95       	ret
  b6:	2a b3       	in	r18, 0x1a	; 26
  b8:	81 e0       	ldi	r24, 0x01	; 1
  ba:	90 e0       	ldi	r25, 0x00	; 0
  bc:	02 c0       	rjmp	.+4      	; 0xc2 <DIO_enumSetPinConfig+0x56>
  be:	88 0f       	add	r24, r24
  c0:	99 1f       	adc	r25, r25
  c2:	6a 95       	dec	r22
  c4:	e2 f7       	brpl	.-8      	; 0xbe <DIO_enumSetPinConfig+0x52>
  c6:	38 2f       	mov	r19, r24
  c8:	30 95       	com	r19
  ca:	23 23       	and	r18, r19
  cc:	2a bb       	out	0x1a, r18	; 26
  ce:	2b b3       	in	r18, 0x1b	; 27
  d0:	82 2b       	or	r24, r18
  d2:	9b b3       	in	r25, 0x1b	; 27
  d4:	89 2b       	or	r24, r25
  d6:	8b bb       	out	0x1b, r24	; 27
  d8:	80 e0       	ldi	r24, 0x00	; 0
  da:	08 95       	ret
  dc:	2a b3       	in	r18, 0x1a	; 26
  de:	81 e0       	ldi	r24, 0x01	; 1
  e0:	90 e0       	ldi	r25, 0x00	; 0
  e2:	02 c0       	rjmp	.+4      	; 0xe8 <DIO_enumSetPinConfig+0x7c>
  e4:	88 0f       	add	r24, r24
  e6:	99 1f       	adc	r25, r25
  e8:	6a 95       	dec	r22
  ea:	e2 f7       	brpl	.-8      	; 0xe4 <DIO_enumSetPinConfig+0x78>
  ec:	80 95       	com	r24
  ee:	92 2f       	mov	r25, r18
  f0:	98 23       	and	r25, r24
  f2:	9a bb       	out	0x1a, r25	; 26
  f4:	9b b3       	in	r25, 0x1b	; 27
  f6:	89 23       	and	r24, r25
  f8:	8b bb       	out	0x1b, r24	; 27
  fa:	80 e0       	ldi	r24, 0x00	; 0
  fc:	08 95       	ret
  fe:	41 30       	cpi	r20, 0x01	; 1
 100:	91 f0       	breq	.+36     	; 0x126 <DIO_enumSetPinConfig+0xba>
 102:	18 f0       	brcs	.+6      	; 0x10a <DIO_enumSetPinConfig+0x9e>
 104:	42 30       	cpi	r20, 0x02	; 2
 106:	11 f1       	breq	.+68     	; 0x14c <DIO_enumSetPinConfig+0xe0>
 108:	aa c0       	rjmp	.+340    	; 0x25e <DIO_enumSetPinConfig+0x1f2>
 10a:	81 e0       	ldi	r24, 0x01	; 1
 10c:	90 e0       	ldi	r25, 0x00	; 0
 10e:	02 c0       	rjmp	.+4      	; 0x114 <DIO_enumSetPinConfig+0xa8>
 110:	88 0f       	add	r24, r24
 112:	99 1f       	adc	r25, r25
 114:	6a 95       	dec	r22
 116:	e2 f7       	brpl	.-8      	; 0x110 <DIO_enumSetPinConfig+0xa4>
 118:	27 b3       	in	r18, 0x17	; 23
 11a:	82 2b       	or	r24, r18
 11c:	97 b3       	in	r25, 0x17	; 23
 11e:	89 2b       	or	r24, r25
 120:	87 bb       	out	0x17, r24	; 23
 122:	80 e0       	ldi	r24, 0x00	; 0
 124:	08 95       	ret
 126:	27 b3       	in	r18, 0x17	; 23
 128:	81 e0       	ldi	r24, 0x01	; 1
 12a:	90 e0       	ldi	r25, 0x00	; 0
 12c:	02 c0       	rjmp	.+4      	; 0x132 <DIO_enumSetPinConfig+0xc6>
 12e:	88 0f       	add	r24, r24
 130:	99 1f       	adc	r25, r25
 132:	6a 95       	dec	r22
 134:	e2 f7       	brpl	.-8      	; 0x12e <DIO_enumSetPinConfig+0xc2>
 136:	38 2f       	mov	r19, r24
 138:	30 95       	com	r19
 13a:	23 23       	and	r18, r19
 13c:	27 bb       	out	0x17, r18	; 23
 13e:	28 b3       	in	r18, 0x18	; 24
 140:	82 2b       	or	r24, r18
 142:	98 b3       	in	r25, 0x18	; 24
 144:	89 2b       	or	r24, r25
 146:	88 bb       	out	0x18, r24	; 24
 148:	80 e0       	ldi	r24, 0x00	; 0
 14a:	08 95       	ret
 14c:	27 b3       	in	r18, 0x17	; 23
 14e:	81 e0       	ldi	r24, 0x01	; 1
 150:	90 e0       	ldi	r25, 0x00	; 0
 152:	02 c0       	rjmp	.+4      	; 0x158 <DIO_enumSetPinConfig+0xec>
 154:	88 0f       	add	r24, r24
 156:	99 1f       	adc	r25, r25
 158:	6a 95       	dec	r22
 15a:	e2 f7       	brpl	.-8      	; 0x154 <DIO_enumSetPinConfig+0xe8>
 15c:	80 95       	com	r24
 15e:	92 2f       	mov	r25, r18
 160:	98 23       	and	r25, r24
 162:	97 bb       	out	0x17, r25	; 23
 164:	98 b3       	in	r25, 0x18	; 24
 166:	89 23       	and	r24, r25
 168:	88 bb       	out	0x18, r24	; 24
 16a:	80 e0       	ldi	r24, 0x00	; 0
 16c:	08 95       	ret
 16e:	41 30       	cpi	r20, 0x01	; 1
 170:	91 f0       	breq	.+36     	; 0x196 <DIO_enumSetPinConfig+0x12a>
 172:	18 f0       	brcs	.+6      	; 0x17a <DIO_enumSetPinConfig+0x10e>
 174:	42 30       	cpi	r20, 0x02	; 2
 176:	11 f1       	breq	.+68     	; 0x1bc <DIO_enumSetPinConfig+0x150>
 178:	74 c0       	rjmp	.+232    	; 0x262 <DIO_enumSetPinConfig+0x1f6>
 17a:	81 e0       	ldi	r24, 0x01	; 1
 17c:	90 e0       	ldi	r25, 0x00	; 0
 17e:	02 c0       	rjmp	.+4      	; 0x184 <DIO_enumSetPinConfig+0x118>
 180:	88 0f       	add	r24, r24
 182:	99 1f       	adc	r25, r25
 184:	6a 95       	dec	r22
 186:	e2 f7       	brpl	.-8      	; 0x180 <DIO_enumSetPinConfig+0x114>
 188:	24 b3       	in	r18, 0x14	; 20
 18a:	82 2b       	or	r24, r18
 18c:	94 b3       	in	r25, 0x14	; 20
 18e:	89 2b       	or	r24, r25
 190:	84 bb       	out	0x14, r24	; 20
 192:	80 e0       	ldi	r24, 0x00	; 0
 194:	08 95       	ret
 196:	24 b3       	in	r18, 0x14	; 20
 198:	81 e0       	ldi	r24, 0x01	; 1
 19a:	90 e0       	ldi	r25, 0x00	; 0
 19c:	02 c0       	rjmp	.+4      	; 0x1a2 <DIO_enumSetPinConfig+0x136>
 19e:	88 0f       	add	r24, r24
 1a0:	99 1f       	adc	r25, r25
 1a2:	6a 95       	dec	r22
 1a4:	e2 f7       	brpl	.-8      	; 0x19e <DIO_enumSetPinConfig+0x132>
 1a6:	38 2f       	mov	r19, r24
 1a8:	30 95       	com	r19
 1aa:	23 23       	and	r18, r19
 1ac:	24 bb       	out	0x14, r18	; 20
 1ae:	25 b3       	in	r18, 0x15	; 21
 1b0:	82 2b       	or	r24, r18
 1b2:	95 b3       	in	r25, 0x15	; 21
 1b4:	89 2b       	or	r24, r25
 1b6:	85 bb       	out	0x15, r24	; 21
 1b8:	80 e0       	ldi	r24, 0x00	; 0
 1ba:	08 95       	ret
 1bc:	24 b3       	in	r18, 0x14	; 20
 1be:	81 e0       	ldi	r24, 0x01	; 1
 1c0:	90 e0       	ldi	r25, 0x00	; 0
 1c2:	02 c0       	rjmp	.+4      	; 0x1c8 <DIO_enumSetPinConfig+0x15c>
 1c4:	88 0f       	add	r24, r24
 1c6:	99 1f       	adc	r25, r25
 1c8:	6a 95       	dec	r22
 1ca:	e2 f7       	brpl	.-8      	; 0x1c4 <DIO_enumSetPinConfig+0x158>
 1cc:	80 95       	com	r24
 1ce:	92 2f       	mov	r25, r18
 1d0:	98 23       	and	r25, r24
 1d2:	94 bb       	out	0x14, r25	; 20
 1d4:	95 b3       	in	r25, 0x15	; 21
 1d6:	89 23       	and	r24, r25
 1d8:	85 bb       	out	0x15, r24	; 21
 1da:	80 e0       	ldi	r24, 0x00	; 0
 1dc:	08 95       	ret
 1de:	41 30       	cpi	r20, 0x01	; 1
 1e0:	91 f0       	breq	.+36     	; 0x206 <DIO_enumSetPinConfig+0x19a>
 1e2:	18 f0       	brcs	.+6      	; 0x1ea <DIO_enumSetPinConfig+0x17e>
 1e4:	42 30       	cpi	r20, 0x02	; 2
 1e6:	11 f1       	breq	.+68     	; 0x22c <DIO_enumSetPinConfig+0x1c0>
 1e8:	3e c0       	rjmp	.+124    	; 0x266 <DIO_enumSetPinConfig+0x1fa>
 1ea:	81 e0       	ldi	r24, 0x01	; 1
 1ec:	90 e0       	ldi	r25, 0x00	; 0
 1ee:	02 c0       	rjmp	.+4      	; 0x1f4 <DIO_enumSetPinConfig+0x188>
 1f0:	88 0f       	add	r24, r24
 1f2:	99 1f       	adc	r25, r25
 1f4:	6a 95       	dec	r22
 1f6:	e2 f7       	brpl	.-8      	; 0x1f0 <DIO_enumSetPinConfig+0x184>
 1f8:	21 b3       	in	r18, 0x11	; 17
 1fa:	82 2b       	or	r24, r18
 1fc:	91 b3       	in	r25, 0x11	; 17
 1fe:	89 2b       	or	r24, r25
 200:	81 bb       	out	0x11, r24	; 17
 202:	80 e0       	ldi	r24, 0x00	; 0
 204:	08 95       	ret
 206:	21 b3       	in	r18, 0x11	; 17
 208:	81 e0       	ldi	r24, 0x01	; 1
 20a:	90 e0       	ldi	r25, 0x00	; 0
 20c:	02 c0       	rjmp	.+4      	; 0x212 <DIO_enumSetPinConfig+0x1a6>
 20e:	88 0f       	add	r24, r24
 210:	99 1f       	adc	r25, r25
 212:	6a 95       	dec	r22
 214:	e2 f7       	brpl	.-8      	; 0x20e <DIO_enumSetPinConfig+0x1a2>
 216:	38 2f       	mov	r19, r24
 218:	30 95       	com	r19
 21a:	23 23       	and	r18, r19
 21c:	21 bb       	out	0x11, r18	; 17
 21e:	22 b3       	in	r18, 0x12	; 18
 220:	82 2b       	or	r24, r18
 222:	92 b3       	in	r25, 0x12	; 18
 224:	89 2b       	or	r24, r25
 226:	82 bb       	out	0x12, r24	; 18
 228:	80 e0       	ldi	r24, 0x00	; 0
 22a:	08 95       	ret
 22c:	21 b3       	in	r18, 0x11	; 17
 22e:	81 e0       	ldi	r24, 0x01	; 1
 230:	90 e0       	ldi	r25, 0x00	; 0
 232:	02 c0       	rjmp	.+4      	; 0x238 <DIO_enumSetPinConfig+0x1cc>
 234:	88 0f       	add	r24, r24
 236:	99 1f       	adc	r25, r25
 238:	6a 95       	dec	r22
 23a:	e2 f7       	brpl	.-8      	; 0x234 <DIO_enumSetPinConfig+0x1c8>
 23c:	80 95       	com	r24
 23e:	92 2f       	mov	r25, r18
 240:	98 23       	and	r25, r24
 242:	91 bb       	out	0x11, r25	; 17
 244:	92 b3       	in	r25, 0x12	; 18
 246:	89 23       	and	r24, r25
 248:	82 bb       	out	0x12, r24	; 18
 24a:	80 e0       	ldi	r24, 0x00	; 0
 24c:	08 95       	ret
 24e:	81 e0       	ldi	r24, 0x01	; 1
 250:	08 95       	ret
 252:	81 e0       	ldi	r24, 0x01	; 1
 254:	08 95       	ret
 256:	80 e0       	ldi	r24, 0x00	; 0
 258:	08 95       	ret
 25a:	80 e0       	ldi	r24, 0x00	; 0
 25c:	08 95       	ret
 25e:	80 e0       	ldi	r24, 0x00	; 0
 260:	08 95       	ret
 262:	80 e0       	ldi	r24, 0x00	; 0
 264:	08 95       	ret
 266:	80 e0       	ldi	r24, 0x00	; 0
 268:	08 95       	ret

0000026a <DIO_enumSetPin>:

DIO_enumError_t DIO_enumSetPin(DIO_enumPorts_t Copy_enumPortNum,DIO_enumPins_t Copy_enumPinNum,DIO_enumLogicState_t Copy_enumLogicState)
{
	DIO_enumError_t DIO_ErrorState = NOK;
	
	if ( ( (Copy_enumPortNum >= PORTA_Choice ) && (Copy_enumPortNum <= PORTD_Choice) ) )
 26a:	84 30       	cpi	r24, 0x04	; 4
 26c:	08 f0       	brcs	.+2      	; 0x270 <DIO_enumSetPin+0x6>
 26e:	8a c0       	rjmp	.+276    	; 0x384 <DIO_enumSetPin+0x11a>
	{
		DIO_ErrorState = OK;
		switch (Copy_enumPortNum)
 270:	81 30       	cpi	r24, 0x01	; 1
 272:	41 f1       	breq	.+80     	; 0x2c4 <DIO_enumSetPin+0x5a>
 274:	38 f0       	brcs	.+14     	; 0x284 <DIO_enumSetPin+0x1a>
 276:	82 30       	cpi	r24, 0x02	; 2
 278:	09 f4       	brne	.+2      	; 0x27c <DIO_enumSetPin+0x12>
 27a:	44 c0       	rjmp	.+136    	; 0x304 <DIO_enumSetPin+0x9a>
 27c:	83 30       	cpi	r24, 0x03	; 3
 27e:	09 f4       	brne	.+2      	; 0x282 <DIO_enumSetPin+0x18>
 280:	61 c0       	rjmp	.+194    	; 0x344 <DIO_enumSetPin+0xda>
 282:	82 c0       	rjmp	.+260    	; 0x388 <DIO_enumSetPin+0x11e>
		{
			case PORTA_Choice:
			switch (Copy_enumLogicState)
 284:	44 23       	and	r20, r20
 286:	19 f0       	breq	.+6      	; 0x28e <DIO_enumSetPin+0x24>
 288:	41 30       	cpi	r20, 0x01	; 1
 28a:	71 f0       	breq	.+28     	; 0x2a8 <DIO_enumSetPin+0x3e>
 28c:	7f c0       	rjmp	.+254    	; 0x38c <DIO_enumSetPin+0x122>
			{
				case LOW:
				Clr_Bit(PORTA , Copy_enumPinNum);
 28e:	2b b3       	in	r18, 0x1b	; 27
 290:	81 e0       	ldi	r24, 0x01	; 1
 292:	90 e0       	ldi	r25, 0x00	; 0
 294:	02 c0       	rjmp	.+4      	; 0x29a <DIO_enumSetPin+0x30>
 296:	88 0f       	add	r24, r24
 298:	99 1f       	adc	r25, r25
 29a:	6a 95       	dec	r22
 29c:	e2 f7       	brpl	.-8      	; 0x296 <DIO_enumSetPin+0x2c>
 29e:	80 95       	com	r24
 2a0:	82 23       	and	r24, r18
 2a2:	8b bb       	out	0x1b, r24	; 27
{
	DIO_enumError_t DIO_ErrorState = NOK;
	
	if ( ( (Copy_enumPortNum >= PORTA_Choice ) && (Copy_enumPortNum <= PORTD_Choice) ) )
	{
		DIO_ErrorState = OK;
 2a4:	80 e0       	ldi	r24, 0x00	; 0
			case PORTA_Choice:
			switch (Copy_enumLogicState)
			{
				case LOW:
				Clr_Bit(PORTA , Copy_enumPinNum);
				break;
 2a6:	08 95       	ret
				case HIGH:
				Set_Bit (PORTA , Copy_enumPinNum);
 2a8:	81 e0       	ldi	r24, 0x01	; 1
 2aa:	90 e0       	ldi	r25, 0x00	; 0
 2ac:	02 c0       	rjmp	.+4      	; 0x2b2 <DIO_enumSetPin+0x48>
 2ae:	88 0f       	add	r24, r24
 2b0:	99 1f       	adc	r25, r25
 2b2:	6a 95       	dec	r22
 2b4:	e2 f7       	brpl	.-8      	; 0x2ae <DIO_enumSetPin+0x44>
 2b6:	2b b3       	in	r18, 0x1b	; 27
 2b8:	82 2b       	or	r24, r18
 2ba:	9b b3       	in	r25, 0x1b	; 27
 2bc:	89 2b       	or	r24, r25
 2be:	8b bb       	out	0x1b, r24	; 27
{
	DIO_enumError_t DIO_ErrorState = NOK;
	
	if ( ( (Copy_enumPortNum >= PORTA_Choice ) && (Copy_enumPortNum <= PORTD_Choice) ) )
	{
		DIO_ErrorState = OK;
 2c0:	80 e0       	ldi	r24, 0x00	; 0
				case LOW:
				Clr_Bit(PORTA , Copy_enumPinNum);
				break;
				case HIGH:
				Set_Bit (PORTA , Copy_enumPinNum);
				break;
 2c2:	08 95       	ret
				default:
				break;
			}
			break;
			case PORTB_Choice:
			switch (Copy_enumLogicState)
 2c4:	44 23       	and	r20, r20
 2c6:	19 f0       	breq	.+6      	; 0x2ce <DIO_enumSetPin+0x64>
 2c8:	41 30       	cpi	r20, 0x01	; 1
 2ca:	71 f0       	breq	.+28     	; 0x2e8 <DIO_enumSetPin+0x7e>
 2cc:	61 c0       	rjmp	.+194    	; 0x390 <DIO_enumSetPin+0x126>
			{
				case LOW:
				Clr_Bit(PORTB, Copy_enumPinNum);
 2ce:	28 b3       	in	r18, 0x18	; 24
 2d0:	81 e0       	ldi	r24, 0x01	; 1
 2d2:	90 e0       	ldi	r25, 0x00	; 0
 2d4:	02 c0       	rjmp	.+4      	; 0x2da <DIO_enumSetPin+0x70>
 2d6:	88 0f       	add	r24, r24
 2d8:	99 1f       	adc	r25, r25
 2da:	6a 95       	dec	r22
 2dc:	e2 f7       	brpl	.-8      	; 0x2d6 <DIO_enumSetPin+0x6c>
 2de:	80 95       	com	r24
 2e0:	82 23       	and	r24, r18
 2e2:	88 bb       	out	0x18, r24	; 24
{
	DIO_enumError_t DIO_ErrorState = NOK;
	
	if ( ( (Copy_enumPortNum >= PORTA_Choice ) && (Copy_enumPortNum <= PORTD_Choice) ) )
	{
		DIO_ErrorState = OK;
 2e4:	80 e0       	ldi	r24, 0x00	; 0
			case PORTB_Choice:
			switch (Copy_enumLogicState)
			{
				case LOW:
				Clr_Bit(PORTB, Copy_enumPinNum);
				break;
 2e6:	08 95       	ret
				case HIGH:
				Set_Bit (PORTB , Copy_enumPinNum);
 2e8:	81 e0       	ldi	r24, 0x01	; 1
 2ea:	90 e0       	ldi	r25, 0x00	; 0
 2ec:	02 c0       	rjmp	.+4      	; 0x2f2 <DIO_enumSetPin+0x88>
 2ee:	88 0f       	add	r24, r24
 2f0:	99 1f       	adc	r25, r25
 2f2:	6a 95       	dec	r22
 2f4:	e2 f7       	brpl	.-8      	; 0x2ee <DIO_enumSetPin+0x84>
 2f6:	28 b3       	in	r18, 0x18	; 24
 2f8:	82 2b       	or	r24, r18
 2fa:	98 b3       	in	r25, 0x18	; 24
 2fc:	89 2b       	or	r24, r25
 2fe:	88 bb       	out	0x18, r24	; 24
{
	DIO_enumError_t DIO_ErrorState = NOK;
	
	if ( ( (Copy_enumPortNum >= PORTA_Choice ) && (Copy_enumPortNum <= PORTD_Choice) ) )
	{
		DIO_ErrorState = OK;
 300:	80 e0       	ldi	r24, 0x00	; 0
				case LOW:
				Clr_Bit(PORTB, Copy_enumPinNum);
				break;
				case HIGH:
				Set_Bit (PORTB , Copy_enumPinNum);
				break;
 302:	08 95       	ret
				default:
				break;
			}
			break;
			case PORTC_Choice:
			switch (Copy_enumLogicState)
 304:	44 23       	and	r20, r20
 306:	19 f0       	breq	.+6      	; 0x30e <DIO_enumSetPin+0xa4>
 308:	41 30       	cpi	r20, 0x01	; 1
 30a:	71 f0       	breq	.+28     	; 0x328 <DIO_enumSetPin+0xbe>
 30c:	43 c0       	rjmp	.+134    	; 0x394 <DIO_enumSetPin+0x12a>
			{
				case LOW:
				Clr_Bit(PORTC, Copy_enumPinNum);
 30e:	25 b3       	in	r18, 0x15	; 21
 310:	81 e0       	ldi	r24, 0x01	; 1
 312:	90 e0       	ldi	r25, 0x00	; 0
 314:	02 c0       	rjmp	.+4      	; 0x31a <DIO_enumSetPin+0xb0>
 316:	88 0f       	add	r24, r24
 318:	99 1f       	adc	r25, r25
 31a:	6a 95       	dec	r22
 31c:	e2 f7       	brpl	.-8      	; 0x316 <DIO_enumSetPin+0xac>
 31e:	80 95       	com	r24
 320:	82 23       	and	r24, r18
 322:	85 bb       	out	0x15, r24	; 21
{
	DIO_enumError_t DIO_ErrorState = NOK;
	
	if ( ( (Copy_enumPortNum >= PORTA_Choice ) && (Copy_enumPortNum <= PORTD_Choice) ) )
	{
		DIO_ErrorState = OK;
 324:	80 e0       	ldi	r24, 0x00	; 0
			case PORTC_Choice:
			switch (Copy_enumLogicState)
			{
				case LOW:
				Clr_Bit(PORTC, Copy_enumPinNum);
				break;
 326:	08 95       	ret
				case HIGH:
				Set_Bit (PORTC , Copy_enumPinNum);
 328:	81 e0       	ldi	r24, 0x01	; 1
 32a:	90 e0       	ldi	r25, 0x00	; 0
 32c:	02 c0       	rjmp	.+4      	; 0x332 <DIO_enumSetPin+0xc8>
 32e:	88 0f       	add	r24, r24
 330:	99 1f       	adc	r25, r25
 332:	6a 95       	dec	r22
 334:	e2 f7       	brpl	.-8      	; 0x32e <DIO_enumSetPin+0xc4>
 336:	25 b3       	in	r18, 0x15	; 21
 338:	82 2b       	or	r24, r18
 33a:	95 b3       	in	r25, 0x15	; 21
 33c:	89 2b       	or	r24, r25
 33e:	85 bb       	out	0x15, r24	; 21
{
	DIO_enumError_t DIO_ErrorState = NOK;
	
	if ( ( (Copy_enumPortNum >= PORTA_Choice ) && (Copy_enumPortNum <= PORTD_Choice) ) )
	{
		DIO_ErrorState = OK;
 340:	80 e0       	ldi	r24, 0x00	; 0
				case LOW:
				Clr_Bit(PORTC, Copy_enumPinNum);
				break;
				case HIGH:
				Set_Bit (PORTC , Copy_enumPinNum);
				break;
 342:	08 95       	ret
				default:
				break;
			}
			break;
			case PORTD_Choice:
			switch (Copy_enumLogicState)
 344:	44 23       	and	r20, r20
 346:	19 f0       	breq	.+6      	; 0x34e <DIO_enumSetPin+0xe4>
 348:	41 30       	cpi	r20, 0x01	; 1
 34a:	71 f0       	breq	.+28     	; 0x368 <DIO_enumSetPin+0xfe>
 34c:	25 c0       	rjmp	.+74     	; 0x398 <DIO_enumSetPin+0x12e>
			{
				case LOW:
				Clr_Bit(PORTD, Copy_enumPinNum);
 34e:	22 b3       	in	r18, 0x12	; 18
 350:	81 e0       	ldi	r24, 0x01	; 1
 352:	90 e0       	ldi	r25, 0x00	; 0
 354:	02 c0       	rjmp	.+4      	; 0x35a <DIO_enumSetPin+0xf0>
 356:	88 0f       	add	r24, r24
 358:	99 1f       	adc	r25, r25
 35a:	6a 95       	dec	r22
 35c:	e2 f7       	brpl	.-8      	; 0x356 <DIO_enumSetPin+0xec>
 35e:	80 95       	com	r24
 360:	82 23       	and	r24, r18
 362:	82 bb       	out	0x12, r24	; 18
{
	DIO_enumError_t DIO_ErrorState = NOK;
	
	if ( ( (Copy_enumPortNum >= PORTA_Choice ) && (Copy_enumPortNum <= PORTD_Choice) ) )
	{
		DIO_ErrorState = OK;
 364:	80 e0       	ldi	r24, 0x00	; 0
			case PORTD_Choice:
			switch (Copy_enumLogicState)
			{
				case LOW:
				Clr_Bit(PORTD, Copy_enumPinNum);
				break;
 366:	08 95       	ret
				case HIGH:
				Set_Bit (PORTD , Copy_enumPinNum);
 368:	81 e0       	ldi	r24, 0x01	; 1
 36a:	90 e0       	ldi	r25, 0x00	; 0
 36c:	02 c0       	rjmp	.+4      	; 0x372 <DIO_enumSetPin+0x108>
 36e:	88 0f       	add	r24, r24
 370:	99 1f       	adc	r25, r25
 372:	6a 95       	dec	r22
 374:	e2 f7       	brpl	.-8      	; 0x36e <DIO_enumSetPin+0x104>
 376:	22 b3       	in	r18, 0x12	; 18
 378:	82 2b       	or	r24, r18
 37a:	92 b3       	in	r25, 0x12	; 18
 37c:	89 2b       	or	r24, r25
 37e:	82 bb       	out	0x12, r24	; 18
{
	DIO_enumError_t DIO_ErrorState = NOK;
	
	if ( ( (Copy_enumPortNum >= PORTA_Choice ) && (Copy_enumPortNum <= PORTD_Choice) ) )
	{
		DIO_ErrorState = OK;
 380:	80 e0       	ldi	r24, 0x00	; 0
				case LOW:
				Clr_Bit(PORTD, Copy_enumPinNum);
				break;
				case HIGH:
				Set_Bit (PORTD , Copy_enumPinNum);
				break;
 382:	08 95       	ret
	
}

DIO_enumError_t DIO_enumSetPin(DIO_enumPorts_t Copy_enumPortNum,DIO_enumPins_t Copy_enumPinNum,DIO_enumLogicState_t Copy_enumLogicState)
{
	DIO_enumError_t DIO_ErrorState = NOK;
 384:	81 e0       	ldi	r24, 0x01	; 1
 386:	08 95       	ret
	
	if ( ( (Copy_enumPortNum >= PORTA_Choice ) && (Copy_enumPortNum <= PORTD_Choice) ) )
	{
		DIO_ErrorState = OK;
 388:	80 e0       	ldi	r24, 0x00	; 0
 38a:	08 95       	ret
 38c:	80 e0       	ldi	r24, 0x00	; 0
 38e:	08 95       	ret
 390:	80 e0       	ldi	r24, 0x00	; 0
 392:	08 95       	ret
 394:	80 e0       	ldi	r24, 0x00	; 0
 396:	08 95       	ret
 398:	80 e0       	ldi	r24, 0x00	; 0
			
		}
	}
	
	return DIO_ErrorState;
}
 39a:	08 95       	ret

0000039c <main>:
int main(void)
{
    /* Replace with your application code */
	/*Set PA1 , PB1 as outputs*/
	
	DIO_enumSetPinConfig (PORTA_Choice , PIN1 , OUTPUT);
 39c:	40 e0       	ldi	r20, 0x00	; 0
 39e:	61 e0       	ldi	r22, 0x01	; 1
 3a0:	80 e0       	ldi	r24, 0x00	; 0
 3a2:	0e 94 36 00 	call	0x6c	; 0x6c <DIO_enumSetPinConfig>
	DIO_enumSetPinConfig (PORTB_Choice , PIN1 , OUTPUT);
 3a6:	40 e0       	ldi	r20, 0x00	; 0
 3a8:	61 e0       	ldi	r22, 0x01	; 1
 3aa:	81 e0       	ldi	r24, 0x01	; 1
 3ac:	0e 94 36 00 	call	0x6c	; 0x6c <DIO_enumSetPinConfig>
	
    while (1) 
    {
		/*LED PA1 is on for 1000ms*/
		DIO_enumSetPin (PORTA_Choice , PIN1 , HIGH);
 3b0:	41 e0       	ldi	r20, 0x01	; 1
 3b2:	61 e0       	ldi	r22, 0x01	; 1
 3b4:	80 e0       	ldi	r24, 0x00	; 0
 3b6:	0e 94 35 01 	call	0x26a	; 0x26a <DIO_enumSetPin>
	#else
		//round up by default
		__ticks_dc = (uint32_t)(ceil(fabs(__tmp)));
	#endif

	__builtin_avr_delay_cycles(__ticks_dc);
 3ba:	2f e3       	ldi	r18, 0x3F	; 63
 3bc:	8d e0       	ldi	r24, 0x0D	; 13
 3be:	93 e0       	ldi	r25, 0x03	; 3
 3c0:	21 50       	subi	r18, 0x01	; 1
 3c2:	80 40       	sbci	r24, 0x00	; 0
 3c4:	90 40       	sbci	r25, 0x00	; 0
 3c6:	e1 f7       	brne	.-8      	; 0x3c0 <main+0x24>
 3c8:	00 c0       	rjmp	.+0      	; 0x3ca <main+0x2e>
 3ca:	00 00       	nop
		_delay_ms(1000); 
		DIO_enumSetPin (PORTA_Choice , PIN1 , LOW);		
 3cc:	40 e0       	ldi	r20, 0x00	; 0
 3ce:	61 e0       	ldi	r22, 0x01	; 1
 3d0:	80 e0       	ldi	r24, 0x00	; 0
 3d2:	0e 94 35 01 	call	0x26a	; 0x26a <DIO_enumSetPin>
	    DIO_enumSetPin (PORTB_Choice , PIN1 , HIGH);
 3d6:	41 e0       	ldi	r20, 0x01	; 1
 3d8:	61 e0       	ldi	r22, 0x01	; 1
 3da:	81 e0       	ldi	r24, 0x01	; 1
 3dc:	0e 94 35 01 	call	0x26a	; 0x26a <DIO_enumSetPin>
 3e0:	2f e3       	ldi	r18, 0x3F	; 63
 3e2:	8d e0       	ldi	r24, 0x0D	; 13
 3e4:	93 e0       	ldi	r25, 0x03	; 3
 3e6:	21 50       	subi	r18, 0x01	; 1
 3e8:	80 40       	sbci	r24, 0x00	; 0
 3ea:	90 40       	sbci	r25, 0x00	; 0
 3ec:	e1 f7       	brne	.-8      	; 0x3e6 <main+0x4a>
 3ee:	00 c0       	rjmp	.+0      	; 0x3f0 <main+0x54>
 3f0:	00 00       	nop
		_delay_ms(1000);
		DIO_enumSetPin (PORTA_Choice , PIN1 , LOW);
 3f2:	40 e0       	ldi	r20, 0x00	; 0
 3f4:	61 e0       	ldi	r22, 0x01	; 1
 3f6:	80 e0       	ldi	r24, 0x00	; 0
 3f8:	0e 94 35 01 	call	0x26a	; 0x26a <DIO_enumSetPin>
 3fc:	d9 cf       	rjmp	.-78     	; 0x3b0 <main+0x14>

000003fe <_exit>:
 3fe:	f8 94       	cli

00000400 <__stop_program>:
 400:	ff cf       	rjmp	.-2      	; 0x400 <__stop_program>
